target datalayout = "e-m:e-p270:32:32-p271:32:32-p272:64:64-i64:64-i128:128-f80:128-n8:16:32:64-S128"
target triple = "x86_64-pc-linux-gnu"

%struct.expert_field = type { i32, i32 }

@ei_gsm_a_bssmap_extraneous_data = internal global %struct.expert_field zeroinitializer, align 4
@.str.137 = private unnamed_addr constant [1 x i8] zeroinitializer, align 1
@ei_gsm_a_bssmap_missing_mandatory_element = internal global %struct.expert_field zeroinitializer, align 4
@.str.139 = private unnamed_addr constant [71 x i8] c"Missing Mandatory element (0x%02x) %s%s, rest of dissection is suspect\00", align 1

; Function Attrs: null_pointer_is_valid sspstrong uwtable
define internal void @bssmap_bss_invoke_trace(ptr noundef %0, ptr noundef %1, ptr noundef %2, i32 noundef %3, i32 noundef %4) #1 {
  %6 = alloca ptr, align 8
  %7 = alloca ptr, align 8
  %8 = alloca ptr, align 8
  %9 = alloca i32, align 4
  %10 = alloca i32, align 4
  %11 = alloca i32, align 4
  %12 = alloca i32, align 4
  %13 = alloca i32, align 4
  %14 = alloca i32, align 4
  store ptr %0, ptr %6, align 8
  store ptr %1, ptr %7, align 8
  store ptr %2, ptr %8, align 8
  store i32 %3, ptr %9, align 4
  store i32 %4, ptr %10, align 4
  call void @llvm.lifetime.start.p0(i64 4, ptr %11) #5
  call void @llvm.lifetime.start.p0(i64 4, ptr %12) #5
  call void @llvm.lifetime.start.p0(i64 4, ptr %13) #5
  %15 = load i32, ptr %9, align 4
  store i32 %15, ptr %11, align 4
  %16 = load i32, ptr %10, align 4
  store i32 %16, ptr %13, align 4
  %17 = load i32, ptr %13, align 4
  %18 = icmp sgt i32 %17, 0
  br i1 %18, label %19, label %34

19:                                               ; preds = %5
  %20 = load ptr, ptr %6, align 8
  %21 = load ptr, ptr %7, align 8
  %22 = load ptr, ptr %8, align 8
  %23 = load i32, ptr %11, align 4
  %24 = call zeroext i16 @elem_tv(ptr noundef %20, ptr noundef %21, ptr noundef %22, i8 noundef zeroext 37, i32 noundef 0, i32 noundef 37, i32 noundef %23, ptr noundef null)
  %25 = zext i16 %24 to i32
  store i32 %25, ptr %12, align 4
  %26 = icmp ugt i32 %25, 0
  br i1 %26, label %27, label %34

27:                                               ; preds = %19
  %28 = load i32, ptr %12, align 4
  %29 = load i32, ptr %11, align 4
  %30 = add i32 %29, %28
  store i32 %30, ptr %11, align 4
  %31 = load i32, ptr %12, align 4
  %32 = load i32, ptr %13, align 4
  %33 = sub i32 %32, %31
  store i32 %33, ptr %13, align 4
  br label %41

34:                                               ; preds = %19, %5
  %35 = load ptr, ptr %7, align 8
  %36 = load ptr, ptr %8, align 8
  %37 = load ptr, ptr %6, align 8
  %38 = load i32, ptr %11, align 4
  %39 = call ptr @get_gsm_a_msg_string(i32 noundef 0, i32 noundef 37)
  %40 = call ptr (ptr, ptr, ptr, ptr, i32, i32, ptr, ...) @proto_tree_add_expert_format(ptr noundef %35, ptr noundef %36, ptr noundef @ei_gsm_a_bssmap_missing_mandatory_element, ptr noundef %37, i32 noundef %38, i32 noundef 0, ptr noundef @.str.139, i32 noundef 37, ptr noundef %39, ptr noundef @.str.137)
  br label %41

41:                                               ; preds = %34, %27
  %42 = load i32, ptr %13, align 4
  %43 = icmp sle i32 %42, 0
  br i1 %43, label %44, label %45

44:                                               ; preds = %41
  store i32 1, ptr %14, align 4
  br label %161

45:                                               ; preds = %41
  %46 = load ptr, ptr %6, align 8
  %47 = load ptr, ptr %7, align 8
  %48 = load ptr, ptr %8, align 8
  %49 = load i32, ptr %11, align 4
  %50 = call zeroext i16 @elem_tv(ptr noundef %46, ptr noundef %47, ptr noundef %48, i8 noundef zeroext 43, i32 noundef 0, i32 noundef 43, i32 noundef %49, ptr noundef null)
  %51 = zext i16 %50 to i32
  store i32 %51, ptr %12, align 4
  %52 = icmp ugt i32 %51, 0
  br i1 %52, label %53, label %60

53:                                               ; preds = %45
  %54 = load i32, ptr %12, align 4
  %55 = load i32, ptr %11, align 4
  %56 = add i32 %55, %54
  store i32 %56, ptr %11, align 4
  %57 = load i32, ptr %12, align 4
  %58 = load i32, ptr %13, align 4
  %59 = sub i32 %58, %57
  store i32 %59, ptr %13, align 4
  br label %60

60:                                               ; preds = %53, %45
  %61 = load i32, ptr %13, align 4
  %62 = icmp sle i32 %61, 0
  br i1 %62, label %63, label %64

63:                                               ; preds = %60
  store i32 1, ptr %14, align 4
  br label %161

64:                                               ; preds = %60
  %65 = load ptr, ptr %6, align 8
  %66 = load ptr, ptr %7, align 8
  %67 = load ptr, ptr %8, align 8
  %68 = load i32, ptr %11, align 4
  %69 = load i32, ptr %13, align 4
  %70 = call zeroext i16 @elem_tlv(ptr noundef %65, ptr noundef %66, ptr noundef %67, i8 noundef zeroext 38, i32 noundef 0, i32 noundef 38, i32 noundef %68, i32 noundef %69, ptr noundef null)
  %71 = zext i16 %70 to i32
  store i32 %71, ptr %12, align 4
  %72 = icmp ugt i32 %71, 0
  br i1 %72, label %73, label %80

73:                                               ; preds = %64
  %74 = load i32, ptr %12, align 4
  %75 = load i32, ptr %11, align 4
  %76 = add i32 %75, %74
  store i32 %76, ptr %11, align 4
  %77 = load i32, ptr %12, align 4
  %78 = load i32, ptr %13, align 4
  %79 = sub i32 %78, %77
  store i32 %79, ptr %13, align 4
  br label %80

80:                                               ; preds = %73, %64
  %81 = load i32, ptr %13, align 4
  %82 = icmp sgt i32 %81, 0
  br i1 %82, label %83, label %98

83:                                               ; preds = %80
  %84 = load ptr, ptr %6, align 8
  %85 = load ptr, ptr %7, align 8
  %86 = load ptr, ptr %8, align 8
  %87 = load i32, ptr %11, align 4
  %88 = call zeroext i16 @elem_tv(ptr noundef %84, ptr noundef %85, ptr noundef %86, i8 noundef zeroext 39, i32 noundef 0, i32 noundef 39, i32 noundef %87, ptr noundef null)
  %89 = zext i16 %88 to i32
  store i32 %89, ptr %12, align 4
  %90 = icmp ugt i32 %89, 0
  br i1 %90, label %91, label %98

91:                                               ; preds = %83
  %92 = load i32, ptr %12, align 4
  %93 = load i32, ptr %11, align 4
  %94 = add i32 %93, %92
  store i32 %94, ptr %11, align 4
  %95 = load i32, ptr %12, align 4
  %96 = load i32, ptr %13, align 4
  %97 = sub i32 %96, %95
  store i32 %97, ptr %13, align 4
  br label %105

98:                                               ; preds = %83, %80
  %99 = load ptr, ptr %7, align 8
  %100 = load ptr, ptr %8, align 8
  %101 = load ptr, ptr %6, align 8
  %102 = load i32, ptr %11, align 4
  %103 = call ptr @get_gsm_a_msg_string(i32 noundef 0, i32 noundef 39)
  %104 = call ptr (ptr, ptr, ptr, ptr, i32, i32, ptr, ...) @proto_tree_add_expert_format(ptr noundef %99, ptr noundef %100, ptr noundef @ei_gsm_a_bssmap_missing_mandatory_element, ptr noundef %101, i32 noundef %102, i32 noundef 0, ptr noundef @.str.139, i32 noundef 39, ptr noundef %103, ptr noundef @.str.137)
  br label %105

105:                                              ; preds = %98, %91
  %106 = load i32, ptr %13, align 4
  %107 = icmp sle i32 %106, 0
  br i1 %107, label %108, label %109

108:                                              ; preds = %105
  store i32 1, ptr %14, align 4
  br label %161

109:                                              ; preds = %105
  %110 = load ptr, ptr %6, align 8
  %111 = load ptr, ptr %7, align 8
  %112 = load ptr, ptr %8, align 8
  %113 = load i32, ptr %11, align 4
  %114 = load i32, ptr %13, align 4
  %115 = call zeroext i16 @elem_tlv(ptr noundef %110, ptr noundef %111, ptr noundef %112, i8 noundef zeroext 40, i32 noundef 0, i32 noundef 40, i32 noundef %113, i32 noundef %114, ptr noundef null)
  %116 = zext i16 %115 to i32
  store i32 %116, ptr %12, align 4
  %117 = icmp ugt i32 %116, 0
  br i1 %117, label %118, label %125

118:                                              ; preds = %109
  %119 = load i32, ptr %12, align 4
  %120 = load i32, ptr %11, align 4
  %121 = add i32 %120, %119
  store i32 %121, ptr %11, align 4
  %122 = load i32, ptr %12, align 4
  %123 = load i32, ptr %13, align 4
  %124 = sub i32 %123, %122
  store i32 %124, ptr %13, align 4
  br label %125

125:                                              ; preds = %118, %109
  %126 = load i32, ptr %13, align 4
  %127 = icmp sle i32 %126, 0
  br i1 %127, label %128, label %129

128:                                              ; preds = %125
  store i32 1, ptr %14, align 4
  br label %161

129:                                              ; preds = %125
  %130 = load ptr, ptr %6, align 8
  %131 = load ptr, ptr %7, align 8
  %132 = load ptr, ptr %8, align 8
  %133 = load i32, ptr %11, align 4
  %134 = load i32, ptr %13, align 4
  %135 = call zeroext i16 @elem_tlv(ptr noundef %130, ptr noundef %131, ptr noundef %132, i8 noundef zeroext 42, i32 noundef 0, i32 noundef 42, i32 noundef %133, i32 noundef %134, ptr noundef null)
  %136 = zext i16 %135 to i32
  store i32 %136, ptr %12, align 4
  %137 = icmp ugt i32 %136, 0
  br i1 %137, label %138, label %145

138:                                              ; preds = %129
  %139 = load i32, ptr %12, align 4
  %140 = load i32, ptr %11, align 4
  %141 = add i32 %140, %139
  store i32 %141, ptr %11, align 4
  %142 = load i32, ptr %12, align 4
  %143 = load i32, ptr %13, align 4
  %144 = sub i32 %143, %142
  store i32 %144, ptr %13, align 4
  br label %145

145:                                              ; preds = %138, %129
  %146 = load i32, ptr %13, align 4
  %147 = icmp ugt i32 %146, 0
  br i1 %147, label %148, label %160

148:                                              ; preds = %145
  %149 = load ptr, ptr %7, align 8
  %150 = load ptr, ptr %8, align 8
  %151 = load ptr, ptr %6, align 8
  %152 = load i32, ptr %11, align 4
  %153 = load i32, ptr %13, align 4
  %154 = sub i32 %153, 0
  %155 = call ptr @proto_tree_add_expert(ptr noundef %149, ptr noundef %150, ptr noundef @ei_gsm_a_bssmap_extraneous_data, ptr noundef %151, i32 noundef %152, i32 noundef %154)
  %156 = load i32, ptr %13, align 4
  %157 = sub i32 %156, 0
  %158 = load i32, ptr %11, align 4
  %159 = add i32 %158, %157
  store i32 %159, ptr %11, align 4
  br label %160

160:                                              ; preds = %148, %145
  store i32 0, ptr %14, align 4
  br label %161

161:                                              ; preds = %160, %128, %108, %63, %44
  call void @llvm.lifetime.end.p0(i64 4, ptr %13) #5
  call void @llvm.lifetime.end.p0(i64 4, ptr %12) #5
  call void @llvm.lifetime.end.p0(i64 4, ptr %11) #5
  %162 = load i32, ptr %14, align 4
  switch i32 %162, label %164 [
    i32 0, label %163
    i32 1, label %163
  ]

163:                                              ; preds = %161, %161
  ret void

164:                                              ; preds = %161
  unreachable
}