; Function Attrs: null_pointer_is_valid sspstrong uwtable
define internal void @bssmap_bss_invoke_trace(ptr noundef %0, ptr noundef %1, ptr noundef %2, i32 noundef %3, i32 noundef %4) #1 {
  %6 = icmp sgt i32 %4, 0
  br i1 %6, label %7, label %13

7:                                                ; preds = %5
  %8 = tail call zeroext i16 @elem_tv(ptr noundef %0, ptr noundef %1, ptr noundef %2, i8 noundef zeroext 37, i32 noundef 0, i32 noundef 37, i32 noundef %3, ptr noundef null)
  %.not = icmp eq i16 %8, 0
  br i1 %.not, label %13, label %9

9:                                                ; preds = %7
  %10 = zext i16 %8 to i32
  %11 = add i32 %3, %10
  %12 = sub nsw i32 %4, %10
  br label %16

13:                                               ; preds = %7, %5
  %14 = tail call ptr @get_gsm_a_msg_string(i32 noundef 0, i32 noundef 37)
  %15 = tail call ptr (ptr, ptr, ptr, ptr, i32, i32, ptr, ...) @proto_tree_add_expert_format(ptr noundef %1, ptr noundef %2, ptr noundef nonnull @ei_gsm_a_bssmap_missing_mandatory_element, ptr noundef %0, i32 noundef %3, i32 noundef 0, ptr noundef nonnull @.str.139, i32 noundef 37, ptr noundef %14, ptr noundef nonnull @.str.137)
  br label %16

16:                                               ; preds = %13, %9
  %.074 = phi i32 [ %11, %9 ], [ %3, %13 ]
  %.0 = phi i32 [ %12, %9 ], [ %4, %13 ]
  %17 = icmp slt i32 %.0, 1
  br i1 %17, label %54, label %18

18:                                               ; preds = %16
  %19 = tail call zeroext i16 @elem_tv(ptr noundef %0, ptr noundef %1, ptr noundef %2, i8 noundef zeroext 43, i32 noundef 0, i32 noundef 43, i32 noundef %.074, ptr noundef null)
  %20 = zext i16 %19 to i32
  %21 = sub nsw i32 %.0, %20
  %22 = icmp slt i32 %21, 1
  br i1 %22, label %54, label %23

23:                                               ; preds = %18
  %24 = add i32 %.074, %20
  %25 = tail call zeroext i16 @elem_tlv(ptr noundef %0, ptr noundef %1, ptr noundef %2, i8 noundef zeroext 38, i32 noundef 0, i32 noundef 38, i32 noundef %24, i32 noundef %21, ptr noundef null)
  %26 = zext i16 %25 to i32
  %27 = add i32 %24, %26
  %28 = sub nsw i32 %21, %26
  %29 = icmp sgt i32 %28, 0
  br i1 %29, label %30, label %36

30:                                               ; preds = %23
  %31 = tail call zeroext i16 @elem_tv(ptr noundef %0, ptr noundef %1, ptr noundef %2, i8 noundef zeroext 39, i32 noundef 0, i32 noundef 39, i32 noundef %27, ptr noundef null)
  %.not89 = icmp eq i16 %31, 0
  br i1 %.not89, label %36, label %32

32:                                               ; preds = %30
  %33 = zext i16 %31 to i32
  %34 = add i32 %27, %33
  %35 = sub nsw i32 %28, %33
  br label %39

36:                                               ; preds = %30, %23
  %37 = tail call ptr @get_gsm_a_msg_string(i32 noundef 0, i32 noundef 39)
  %38 = tail call ptr (ptr, ptr, ptr, ptr, i32, i32, ptr, ...) @proto_tree_add_expert_format(ptr noundef %1, ptr noundef %2, ptr noundef nonnull @ei_gsm_a_bssmap_missing_mandatory_element, ptr noundef %0, i32 noundef %27, i32 noundef 0, ptr noundef nonnull @.str.139, i32 noundef 39, ptr noundef %37, ptr noundef nonnull @.str.137)
  br label %39

39:                                               ; preds = %36, %32
  %.377 = phi i32 [ %34, %32 ], [ %27, %36 ]
  %.3 = phi i32 [ %35, %32 ], [ %28, %36 ]
  %40 = icmp slt i32 %.3, 1
  br i1 %40, label %54, label %41

41:                                               ; preds = %39
  %42 = tail call zeroext i16 @elem_tlv(ptr noundef %0, ptr noundef %1, ptr noundef %2, i8 noundef zeroext 40, i32 noundef 0, i32 noundef 40, i32 noundef %.377, i32 noundef %.3, ptr noundef null)
  %43 = zext i16 %42 to i32
  %44 = sub nsw i32 %.3, %43
  %45 = icmp slt i32 %44, 1
  br i1 %45, label %54, label %46

46:                                               ; preds = %41
  %47 = add i32 %.377, %43
  %48 = tail call zeroext i16 @elem_tlv(ptr noundef %0, ptr noundef %1, ptr noundef %2, i8 noundef zeroext 42, i32 noundef 0, i32 noundef 42, i32 noundef %47, i32 noundef %44, ptr noundef null)
  %49 = zext i16 %48 to i32
  %.not92 = icmp eq i32 %44, %49
  br i1 %.not92, label %54, label %50

50:                                               ; preds = %46
  %51 = sub nsw i32 %44, %49
  %52 = add i32 %47, %49
  %53 = tail call ptr @proto_tree_add_expert(ptr noundef %1, ptr noundef %2, ptr noundef nonnull @ei_gsm_a_bssmap_extraneous_data, ptr noundef %0, i32 noundef %52, i32 noundef %51)
  br label %54

54:                                               ; preds = %46, %50, %41, %39, %18, %16
  ret void
}